target datalayout = "e-m:e-p270:32:32-p271:32:32-p272:64:64-i64:64-i128:128-f80:128-n8:16:32:64-S128"
target triple = "x86_64-pc-linux-gnu"

%struct.OSSL_TIME = type { i64 }

@fake_time_lock = internal global ptr null, align 8
@fake_time = internal global %struct.OSSL_TIME zeroinitializer, align 8

; Function Attrs: inlinehint nounwind uwtable
define internal i64 @ossl_ticks2time(i64 noundef %0) #5 {
  %2 = alloca %struct.OSSL_TIME, align 8
  %3 = alloca i64, align 8
  store i64 %0, ptr %3, align 8, !tbaa !22
  %4 = load i64, ptr %3, align 8, !tbaa !22
  %5 = getelementptr inbounds nuw %struct.OSSL_TIME, ptr %2, i32 0, i32 0
  store i64 %4, ptr %5, align 8, !tbaa !38
  %6 = getelementptr inbounds nuw %struct.OSSL_TIME, ptr %2, i32 0, i32 0
  %7 = load i64, ptr %6, align 8
  ret i64 %7
}

; Function Attrs: inlinehint nounwind uwtable
define internal i64 @ossl_time_zero() #5 {
  %1 = alloca %struct.OSSL_TIME, align 8
  %2 = call i64 @ossl_ticks2time(i64 noundef 0)
  %3 = getelementptr inbounds nuw %struct.OSSL_TIME, ptr %1, i32 0, i32 0
  store i64 %2, ptr %3, align 8
  %4 = getelementptr inbounds nuw %struct.OSSL_TIME, ptr %1, i32 0, i32 0
  %5 = load i64, ptr %4, align 8
  ret i64 %5
}

; Function Attrs: nounwind uwtable
define internal i64 @fake_now(ptr noundef %0) #0 {
  %2 = alloca %struct.OSSL_TIME, align 8
  %3 = alloca ptr, align 8
  %4 = alloca %struct.OSSL_TIME, align 8
  %5 = alloca i32, align 4
  store ptr %0, ptr %3, align 8, !tbaa !9
  call void @llvm.lifetime.start.p0(i64 8, ptr %4) #7
  %6 = load ptr, ptr @fake_time_lock, align 8, !tbaa !9
  %7 = call i32 @CRYPTO_THREAD_read_lock(ptr noundef %6)
  %8 = icmp ne i32 %7, 0
  br i1 %8, label %12, label %9

9:                                                ; preds = %1
  %10 = call i64 @ossl_time_zero()
  %11 = getelementptr inbounds nuw %struct.OSSL_TIME, ptr %2, i32 0, i32 0
  store i64 %10, ptr %11, align 8
  store i32 1, ptr %5, align 4
  br label %15

12:                                               ; preds = %1
  call void @llvm.memcpy.p0.p0.i64(ptr align 8 %4, ptr align 8 @fake_time, i64 8, i1 false), !tbaa.struct !27
  %13 = load ptr, ptr @fake_time_lock, align 8, !tbaa !9
  %14 = call i32 @CRYPTO_THREAD_unlock(ptr noundef %13)
  call void @llvm.memcpy.p0.p0.i64(ptr align 8 %2, ptr align 8 %4, i64 8, i1 false), !tbaa.struct !27
  store i32 1, ptr %5, align 4
  br label %15

15:                                               ; preds = %12, %9
  call void @llvm.lifetime.end.p0(i64 8, ptr %4) #7
  %16 = getelementptr inbounds nuw %struct.OSSL_TIME, ptr %2, i32 0, i32 0
  %17 = load i64, ptr %16, align 8
  ret i64 %17
}