; Function Attrs: nounwind uwtable
define internal i64 @fake_now(ptr readnone captures(none) %0) #1 {
  %2 = load ptr, ptr @fake_time_lock, align 8, !tbaa !9
  %3 = tail call i32 @CRYPTO_THREAD_read_lock(ptr noundef %2) #7
  %.not = icmp eq i32 %3, 0
  br i1 %.not, label %7, label %4

4:                                                ; preds = %1
  %.sroa.0.0.copyload = load i64, ptr @fake_time.0, align 8, !tbaa !12
  %5 = load ptr, ptr @fake_time_lock, align 8, !tbaa !9
  %6 = tail call i32 @CRYPTO_THREAD_unlock(ptr noundef %5) #7
  br label %7

7:                                                ; preds = %1, %4
  %.sroa.02.0 = phi i64 [ %.sroa.0.0.copyload, %4 ], [ 0, %1 ]
  ret i64 %.sroa.02.0
}